target datalayout = "e-m:e-p270:32:32-p271:32:32-p272:64:64-i64:64-i128:128-f80:128-n8:16:32:64-S128"
target triple = "x86_64-pc-linux-gnu"

%struct.QualCost = type { double, double }
%struct.ForEachState = type { ptr, i32 }
%struct.List = type { i32, i32, i32, ptr, [0 x %union.ListCell] }
%union.ListCell = type { ptr }
%struct.cost_qual_eval_context = type { ptr, %struct.QualCost }

; Function Attrs: nounwind uwtable
define dso_local void @cost_qual_eval(ptr noundef %0, ptr noundef %1, ptr noundef %2) #0 {
  %4 = alloca ptr, align 8
  %5 = alloca ptr, align 8
  %6 = alloca ptr, align 8
  %7 = alloca %struct.cost_qual_eval_context, align 8
  %8 = alloca ptr, align 8
  %9 = alloca %struct.ForEachState, align 8
  %10 = alloca ptr, align 8
  store ptr %0, ptr %4, align 8
  store ptr %1, ptr %5, align 8
  store ptr %2, ptr %6, align 8
  call void @llvm.lifetime.start.p0(i64 24, ptr %7) #9
  call void @llvm.lifetime.start.p0(i64 8, ptr %8) #9
  %11 = load ptr, ptr %6, align 8
  %12 = getelementptr inbounds nuw %struct.cost_qual_eval_context, ptr %7, i32 0, i32 0
  store ptr %11, ptr %12, align 8
  %13 = getelementptr inbounds nuw %struct.cost_qual_eval_context, ptr %7, i32 0, i32 1
  %14 = getelementptr inbounds nuw %struct.QualCost, ptr %13, i32 0, i32 0
  store double 0.000000e+00, ptr %14, align 8
  %15 = getelementptr inbounds nuw %struct.cost_qual_eval_context, ptr %7, i32 0, i32 1
  %16 = getelementptr inbounds nuw %struct.QualCost, ptr %15, i32 0, i32 1
  store double 0.000000e+00, ptr %16, align 8
  call void @llvm.lifetime.start.p0(i64 16, ptr %9) #9
  %17 = getelementptr inbounds nuw %struct.ForEachState, ptr %9, i32 0, i32 0
  %18 = load ptr, ptr %5, align 8
  store ptr %18, ptr %17, align 8
  %19 = getelementptr inbounds nuw %struct.ForEachState, ptr %9, i32 0, i32 1
  store i32 0, ptr %19, align 8
  %20 = getelementptr i8, ptr %9, i64 12
  call void @llvm.memset.p0.i64(ptr align 4 %20, i8 0, i64 4, i1 false)
  br label %21

21:                                               ; preds = %52, %3
  %22 = getelementptr inbounds nuw %struct.ForEachState, ptr %9, i32 0, i32 0
  %23 = load ptr, ptr %22, align 8
  %24 = icmp ne ptr %23, null
  br i1 %24, label %25, label %42

25:                                               ; preds = %21
  %26 = getelementptr inbounds nuw %struct.ForEachState, ptr %9, i32 0, i32 1
  %27 = load i32, ptr %26, align 8
  %28 = getelementptr inbounds nuw %struct.ForEachState, ptr %9, i32 0, i32 0
  %29 = load ptr, ptr %28, align 8
  %30 = getelementptr inbounds nuw %struct.List, ptr %29, i32 0, i32 1
  %31 = load i32, ptr %30, align 4
  %32 = icmp slt i32 %27, %31
  br i1 %32, label %33, label %42

33:                                               ; preds = %25
  %34 = getelementptr inbounds nuw %struct.ForEachState, ptr %9, i32 0, i32 0
  %35 = load ptr, ptr %34, align 8
  %36 = getelementptr inbounds nuw %struct.List, ptr %35, i32 0, i32 3
  %37 = load ptr, ptr %36, align 8
  %38 = getelementptr inbounds nuw %struct.ForEachState, ptr %9, i32 0, i32 1
  %39 = load i32, ptr %38, align 8
  %40 = sext i32 %39 to i64
  %41 = getelementptr inbounds %union.ListCell, ptr %37, i64 %40
  store ptr %41, ptr %8, align 8
  br label %43

42:                                               ; preds = %25, %21
  store ptr null, ptr %8, align 8
  br label %43

43:                                               ; preds = %42, %33
  %44 = phi i32 [ 1, %33 ], [ 0, %42 ]
  %45 = icmp ne i32 %44, 0
  br i1 %45, label %47, label %46

46:                                               ; preds = %43
  call void @llvm.lifetime.end.p0(i64 16, ptr %9) #9
  br label %56

47:                                               ; preds = %43
  call void @llvm.lifetime.start.p0(i64 8, ptr %10) #9
  %48 = load ptr, ptr %8, align 8
  %49 = load ptr, ptr %48, align 8
  store ptr %49, ptr %10, align 8
  %50 = load ptr, ptr %10, align 8
  %51 = call zeroext i1 @cost_qual_eval_walker(ptr noundef %50, ptr noundef %7)
  call void @llvm.lifetime.end.p0(i64 8, ptr %10) #9
  br label %52

52:                                               ; preds = %47
  %53 = getelementptr inbounds nuw %struct.ForEachState, ptr %9, i32 0, i32 1
  %54 = load i32, ptr %53, align 8
  %55 = add i32 %54, 1
  store i32 %55, ptr %53, align 8
  br label %21, !llvm.loop !8

56:                                               ; preds = %46
  %57 = load ptr, ptr %4, align 8
  %58 = getelementptr inbounds nuw %struct.cost_qual_eval_context, ptr %7, i32 0, i32 1
  call void @llvm.memcpy.p0.p0.i64(ptr align 8 %57, ptr align 8 %58, i64 16, i1 false)
  call void @llvm.lifetime.end.p0(i64 8, ptr %8) #9
  call void @llvm.lifetime.end.p0(i64 24, ptr %7) #9
  ret void
}