; Function Attrs: nounwind uwtable
define dso_local void @cost_qual_eval(ptr noundef writeonly captures(none) %0, ptr noundef readonly captures(address_is_null) %1, ptr noundef %2) local_unnamed_addr #2 {
  %4 = alloca %struct.cost_qual_eval_context, align 8
  call void @llvm.lifetime.start.p0(i64 24, ptr nonnull %4) #17
  store ptr %2, ptr %4, align 8
  %5 = getelementptr inbounds nuw i8, ptr %4, i64 8
  %6 = getelementptr inbounds nuw i8, ptr %1, i64 4
  %.not = icmp eq ptr %1, null
  call void @llvm.memset.p0.i64(ptr noundef nonnull align 8 dereferenceable(16) %5, i8 0, i64 16, i1 false)
  br i1 %.not, label %._crit_edge, label %.lr.ph

.lr.ph:                                           ; preds = %3
  %7 = getelementptr inbounds nuw i8, ptr %1, i64 16
  %8 = load i32, ptr %6, align 4
  %9 = icmp sgt i32 %8, 0
  br i1 %9, label %.lr.ph16, label %._crit_edge

._crit_edge:                                      ; preds = %.lr.ph16, %.lr.ph, %3
  call void @llvm.memcpy.p0.p0.i64(ptr noundef nonnull align 8 dereferenceable(16) %0, ptr noundef nonnull align 8 dereferenceable(16) %5, i64 16, i1 false)
  call void @llvm.lifetime.end.p0(i64 24, ptr nonnull %4) #17
  ret void

.lr.ph16:                                         ; preds = %.lr.ph, %.lr.ph16
  %indvars.iv = phi i64 [ %indvars.iv.next, %.lr.ph16 ], [ 0, %.lr.ph ]
  %10 = load ptr, ptr %7, align 8
  %11 = getelementptr inbounds nuw %union.ListCell, ptr %10, i64 %indvars.iv
  %12 = load ptr, ptr %11, align 8
  %13 = call zeroext i1 @cost_qual_eval_walker(ptr noundef %12, ptr noundef nonnull %4)
  %indvars.iv.next = add nuw nsw i64 %indvars.iv, 1
  %14 = load i32, ptr %6, align 4
  %15 = sext i32 %14 to i64
  %16 = icmp slt i64 %indvars.iv.next, %15
  br i1 %16, label %.lr.ph16, label %._crit_edge
}